; Function Attrs: mustprogress uwtable
define void @_ZN5faiss15IndexPQFastScan5trainElPKf(ptr noundef nonnull align 8 dereferenceable(344) %0, i64 noundef %1, ptr noundef %2) unnamed_addr #1 align 2 {
  %4 = getelementptr inbounds i8, ptr %0, i64 25
  %5 = load i8, ptr %4, align 1
  %6 = and i8 %5, 1
  %.not = icmp eq i8 %6, 0
  br i1 %.not, label %7, label %9

7:                                                ; preds = %3
  %8 = getelementptr inbounds i8, ptr %0, i64 136
  tail call void @_ZN5faiss16ProductQuantizer5trainEmPKf(ptr noundef nonnull align 8 dereferenceable(208) %8, i64 noundef %1, ptr noundef %2)
  store i8 1, ptr %4, align 1
  br label %9

9:                                                ; preds = %3, %7
  ret void
}